target datalayout = "e-m:e-p270:32:32-p271:32:32-p272:64:64-i64:64-i128:128-f80:128-n8:16:32:64-S128"
target triple = "x86_64-pc-linux-gnu"

%struct.AVCodecContext = type { ptr, i32, i32, ptr, i32, i32, ptr, ptr, ptr, i64, i32, i32, ptr, i32, %struct.AVRational, %struct.AVRational, %struct.AVRational, i32, i32, i32, i32, i32, %struct.AVRational, i32, i32, i32, i32, i32, i32, i32, i32, i32, i32, i32, ptr, ptr, i32, float, float, float, float, float, float, float, float, float, i32, i32, i32, i32, i32, i32, i32, i32, i32, i32, i32, i32, ptr, ptr, ptr, i32, i32, i32, i32, i32, i32, i32, i32, i32, i32, %struct.AVChannelLayout, i32, i32, i32, i32, i32, i32, i32, i32, ptr, i32, i32, i32, float, float, i32, i32, i32, i32, i32, ptr, i64, i64, float, float, i32, i32, ptr, ptr, i32, i32, i32, i32, i32, ptr, ptr, ptr, ptr, i32, i32, [8 x i64], i32, i32, i32, i32, i32, i32, i32, ptr, ptr, i32, i32, i32, i32, i32, i32, i32, i32, i32, i32, ptr, ptr, i32, i32, ptr, ptr, ptr, ptr, i32, i32, i64, i32, i32, i64, ptr, i64, ptr, i32, ptr, i32 }
%struct.AVRational = type { i32, i32 }
%struct.AVChannelLayout = type { i32, i32, %union.anon.1, ptr }
%union.anon.1 = type { i64 }
%struct.RASCContext = type { ptr, i32, %struct.GetByteContext, ptr, i32, ptr, i32, i32, i32, i32, i32, i32, i32, ptr, ptr, ptr, %struct.FFZStream }
%struct.GetByteContext = type { ptr, ptr, ptr }
%struct.FFZStream = type { %struct.z_stream_s, i32 }
%struct.z_stream_s = type { ptr, i32, i64, ptr, i32, i64, ptr, ptr, ptr, ptr, ptr, i32, i64, i64 }
%struct.AVPacket = type { ptr, i64, i64, ptr, i32, i32, i32, ptr, i32, i64, i64, ptr, ptr, %struct.AVRational }

@.str.10 = private unnamed_addr constant [25 x i8] c"Inflate reset error: %d\0A\00", align 1
@.str.11 = private unnamed_addr constant [38 x i8] c"Inflate failed with return code: %d.\0A\00", align 1

; Function Attrs: alwaysinline nounwind uwtable
define internal i32 @bytestream2_get_bytes_left(ptr noundef %0) #4 {
  %2 = alloca ptr, align 8
  store ptr %0, ptr %2, align 8, !tbaa !43
  %3 = load ptr, ptr %2, align 8, !tbaa !43
  %4 = getelementptr inbounds nuw %struct.GetByteContext, ptr %3, i32 0, i32 1
  %5 = load ptr, ptr %4, align 8, !tbaa !65
  %6 = load ptr, ptr %2, align 8, !tbaa !43
  %7 = getelementptr inbounds nuw %struct.GetByteContext, ptr %6, i32 0, i32 0
  %8 = load ptr, ptr %7, align 8, !tbaa !63
  %9 = ptrtoint ptr %5 to i64
  %10 = ptrtoint ptr %8 to i64
  %11 = sub i64 %9, %10
  %12 = trunc i64 %11 to i32
  ret i32 %12
}

; Function Attrs: alwaysinline nounwind uwtable
define internal i32 @bytestream2_tell(ptr noundef %0) #4 {
  %2 = alloca ptr, align 8
  store ptr %0, ptr %2, align 8, !tbaa !43
  %3 = load ptr, ptr %2, align 8, !tbaa !43
  %4 = getelementptr inbounds nuw %struct.GetByteContext, ptr %3, i32 0, i32 0
  %5 = load ptr, ptr %4, align 8, !tbaa !63
  %6 = load ptr, ptr %2, align 8, !tbaa !43
  %7 = getelementptr inbounds nuw %struct.GetByteContext, ptr %6, i32 0, i32 2
  %8 = load ptr, ptr %7, align 8, !tbaa !64
  %9 = ptrtoint ptr %5 to i64
  %10 = ptrtoint ptr %8 to i64
  %11 = sub i64 %9, %10
  %12 = trunc i64 %11 to i32
  ret i32 %12
}

; Function Attrs: nounwind uwtable
define internal i32 @decode_zlib(ptr noundef %0, ptr noundef %1, i32 noundef %2, i32 noundef %3) #1 {
  %5 = alloca i32, align 4
  %6 = alloca ptr, align 8
  %7 = alloca ptr, align 8
  %8 = alloca i32, align 4
  %9 = alloca i32, align 4
  %10 = alloca ptr, align 8
  %11 = alloca ptr, align 8
  %12 = alloca ptr, align 8
  %13 = alloca i32, align 4
  %14 = alloca i32, align 4
  store ptr %0, ptr %6, align 8, !tbaa !4
  store ptr %1, ptr %7, align 8, !tbaa !41
  store i32 %2, ptr %8, align 4, !tbaa !45
  store i32 %3, ptr %9, align 4, !tbaa !45
  call void @llvm.lifetime.start.p0(i64 8, ptr %10) #8
  %15 = load ptr, ptr %6, align 8, !tbaa !4
  %16 = getelementptr inbounds nuw %struct.AVCodecContext, ptr %15, i32 0, i32 6
  %17 = load ptr, ptr %16, align 8, !tbaa !9
  store ptr %17, ptr %10, align 8, !tbaa !29
  call void @llvm.lifetime.start.p0(i64 8, ptr %11) #8
  %18 = load ptr, ptr %10, align 8, !tbaa !29
  %19 = getelementptr inbounds nuw %struct.RASCContext, ptr %18, i32 0, i32 16
  %20 = getelementptr inbounds nuw %struct.FFZStream, ptr %19, i32 0, i32 0
  store ptr %20, ptr %11, align 8, !tbaa !71
  call void @llvm.lifetime.start.p0(i64 8, ptr %12) #8
  %21 = load ptr, ptr %10, align 8, !tbaa !29
  %22 = getelementptr inbounds nuw %struct.RASCContext, ptr %21, i32 0, i32 2
  store ptr %22, ptr %12, align 8, !tbaa !43
  call void @llvm.lifetime.start.p0(i64 4, ptr %13) #8
  %23 = load ptr, ptr %11, align 8, !tbaa !71
  %24 = call i32 @inflateReset(ptr noundef %23)
  store i32 %24, ptr %13, align 4, !tbaa !45
  %25 = load i32, ptr %13, align 4, !tbaa !45
  %26 = icmp ne i32 %25, 0
  br i1 %26, label %27, label %30

27:                                               ; preds = %4
  %28 = load ptr, ptr %6, align 8, !tbaa !4
  %29 = load i32, ptr %13, align 4, !tbaa !45
  call void (ptr, i32, ptr, ...) @av_log(ptr noundef %28, i32 noundef 16, ptr noundef @.str.10, i32 noundef %29)
  store i32 -542398533, ptr %5, align 4
  store i32 1, ptr %14, align 4
  br label %83

30:                                               ; preds = %4
  %31 = load ptr, ptr %10, align 8, !tbaa !29
  %32 = getelementptr inbounds nuw %struct.RASCContext, ptr %31, i32 0, i32 3
  %33 = load ptr, ptr %10, align 8, !tbaa !29
  %34 = getelementptr inbounds nuw %struct.RASCContext, ptr %33, i32 0, i32 4
  %35 = load i32, ptr %9, align 4, !tbaa !45
  %36 = zext i32 %35 to i64
  call void @av_fast_padded_malloc(ptr noundef %32, ptr noundef %34, i64 noundef %36)
  %37 = load ptr, ptr %10, align 8, !tbaa !29
  %38 = getelementptr inbounds nuw %struct.RASCContext, ptr %37, i32 0, i32 3
  %39 = load ptr, ptr %38, align 8, !tbaa !79
  %40 = icmp ne ptr %39, null
  br i1 %40, label %42, label %41

41:                                               ; preds = %30
  store i32 -12, ptr %5, align 4
  store i32 1, ptr %14, align 4
  br label %83

42:                                               ; preds = %30
  %43 = load ptr, ptr %7, align 8, !tbaa !41
  %44 = getelementptr inbounds nuw %struct.AVPacket, ptr %43, i32 0, i32 3
  %45 = load ptr, ptr %44, align 8, !tbaa !46
  %46 = load ptr, ptr %12, align 8, !tbaa !43
  %47 = call i32 @bytestream2_tell(ptr noundef %46)
  %48 = sext i32 %47 to i64
  %49 = getelementptr inbounds i8, ptr %45, i64 %48
  %50 = load ptr, ptr %11, align 8, !tbaa !71
  %51 = getelementptr inbounds nuw %struct.z_stream_s, ptr %50, i32 0, i32 0
  store ptr %49, ptr %51, align 8, !tbaa !73
  %52 = load i32, ptr %8, align 4, !tbaa !45
  %53 = load ptr, ptr %12, align 8, !tbaa !43
  %54 = call i32 @bytestream2_get_bytes_left(ptr noundef %53)
  %55 = icmp ugt i32 %52, %54
  br i1 %55, label %56, label %59

56:                                               ; preds = %42
  %57 = load ptr, ptr %12, align 8, !tbaa !43
  %58 = call i32 @bytestream2_get_bytes_left(ptr noundef %57)
  br label %61

59:                                               ; preds = %42
  %60 = load i32, ptr %8, align 4, !tbaa !45
  br label %61

61:                                               ; preds = %59, %56
  %62 = phi i32 [ %58, %56 ], [ %60, %59 ]
  %63 = load ptr, ptr %11, align 8, !tbaa !71
  %64 = getelementptr inbounds nuw %struct.z_stream_s, ptr %63, i32 0, i32 1
  store i32 %62, ptr %64, align 8, !tbaa !74
  %65 = load ptr, ptr %10, align 8, !tbaa !29
  %66 = getelementptr inbounds nuw %struct.RASCContext, ptr %65, i32 0, i32 3
  %67 = load ptr, ptr %66, align 8, !tbaa !79
  %68 = load ptr, ptr %11, align 8, !tbaa !71
  %69 = getelementptr inbounds nuw %struct.z_stream_s, ptr %68, i32 0, i32 3
  store ptr %67, ptr %69, align 8, !tbaa !75
  %70 = load ptr, ptr %10, align 8, !tbaa !29
  %71 = getelementptr inbounds nuw %struct.RASCContext, ptr %70, i32 0, i32 4
  %72 = load i32, ptr %71, align 8, !tbaa !62
  %73 = load ptr, ptr %11, align 8, !tbaa !71
  %74 = getelementptr inbounds nuw %struct.z_stream_s, ptr %73, i32 0, i32 4
  store i32 %72, ptr %74, align 8, !tbaa !76
  %75 = load ptr, ptr %11, align 8, !tbaa !71
  %76 = call i32 @inflate(ptr noundef %75, i32 noundef 4)
  store i32 %76, ptr %13, align 4, !tbaa !45
  %77 = load i32, ptr %13, align 4, !tbaa !45
  %78 = icmp ne i32 %77, 1
  br i1 %78, label %79, label %82

79:                                               ; preds = %61
  %80 = load ptr, ptr %6, align 8, !tbaa !4
  %81 = load i32, ptr %13, align 4, !tbaa !45
  call void (ptr, i32, ptr, ...) @av_log(ptr noundef %80, i32 noundef 16, ptr noundef @.str.11, i32 noundef %81)
  store i32 -1094995529, ptr %5, align 4
  store i32 1, ptr %14, align 4
  br label %83

82:                                               ; preds = %61
  store i32 0, ptr %5, align 4
  store i32 1, ptr %14, align 4
  br label %83

83:                                               ; preds = %82, %79, %41, %27
  call void @llvm.lifetime.end.p0(i64 4, ptr %13) #8
  call void @llvm.lifetime.end.p0(i64 8, ptr %12) #8
  call void @llvm.lifetime.end.p0(i64 8, ptr %11) #8
  call void @llvm.lifetime.end.p0(i64 8, ptr %10) #8
  %84 = load i32, ptr %5, align 4
  ret i32 %84
}