; Function Attrs: nounwind uwtable
define internal fastcc range(i32 -1094995529, 1) i32 @decode_zlib(ptr noundef %0, ptr noundef readonly captures(none) %1, i32 noundef %2, i32 noundef %3) unnamed_addr #1 {
  %5 = getelementptr inbounds nuw i8, ptr %0, i64 32
  %6 = load ptr, ptr %5, align 8, !tbaa !4
  %7 = getelementptr inbounds nuw i8, ptr %6, i64 120
  %8 = getelementptr inbounds nuw i8, ptr %6, i64 16
  %9 = tail call i32 @inflateReset(ptr noundef nonnull %7) #8
  %.not = icmp eq i32 %9, 0
  br i1 %.not, label %11, label %10

10:                                               ; preds = %4
  tail call void (ptr, i32, ptr, ...) @av_log(ptr noundef nonnull %0, i32 noundef 16, ptr noundef nonnull @.str.10, i32 noundef %9) #8
  br label %38

11:                                               ; preds = %4
  %12 = getelementptr inbounds nuw i8, ptr %6, i64 40
  %13 = getelementptr inbounds nuw i8, ptr %6, i64 48
  %14 = zext i32 %3 to i64
  tail call void @av_fast_padded_malloc(ptr noundef nonnull %12, ptr noundef nonnull %13, i64 noundef %14) #8
  %15 = load ptr, ptr %12, align 8, !tbaa !56
  %.not30 = icmp eq ptr %15, null
  br i1 %.not30, label %38, label %16

16:                                               ; preds = %11
  %17 = getelementptr inbounds nuw i8, ptr %1, i64 24
  %18 = load ptr, ptr %17, align 8, !tbaa !35
  %19 = load ptr, ptr %8, align 8, !tbaa !38
  %20 = getelementptr inbounds nuw i8, ptr %6, i64 32
  %21 = load ptr, ptr %20, align 8, !tbaa !39
  %22 = ptrtoint ptr %19 to i64
  %23 = ptrtoint ptr %21 to i64
  %24 = sub i64 %22, %23
  %sext = shl i64 %24, 32
  %25 = ashr exact i64 %sext, 32
  %26 = getelementptr inbounds i8, ptr %18, i64 %25
  store ptr %26, ptr %7, align 8, !tbaa !44
  %27 = getelementptr inbounds nuw i8, ptr %6, i64 24
  %28 = load ptr, ptr %27, align 8, !tbaa !40
  %29 = ptrtoint ptr %28 to i64
  %30 = sub i64 %29, %22
  %31 = trunc i64 %30 to i32
  %spec.select = tail call i32 @llvm.umin.i32(i32 %2, i32 %31)
  %32 = getelementptr inbounds nuw i8, ptr %6, i64 128
  store i32 %spec.select, ptr %32, align 8, !tbaa !45
  %33 = getelementptr inbounds nuw i8, ptr %6, i64 144
  store ptr %15, ptr %33, align 8, !tbaa !48
  %34 = load i32, ptr %13, align 8, !tbaa !95
  %35 = getelementptr inbounds nuw i8, ptr %6, i64 152
  store i32 %34, ptr %35, align 8, !tbaa !50
  %36 = tail call i32 @inflate(ptr noundef nonnull %7, i32 noundef 4) #8
  %.not31 = icmp eq i32 %36, 1
  br i1 %.not31, label %38, label %37

37:                                               ; preds = %16
  tail call void (ptr, i32, ptr, ...) @av_log(ptr noundef nonnull %0, i32 noundef 16, ptr noundef nonnull @.str.11, i32 noundef %36) #8
  br label %38

38:                                               ; preds = %16, %11, %37, %10
  %.0 = phi i32 [ -542398533, %10 ], [ -1094995529, %37 ], [ -12, %11 ], [ 0, %16 ]
  ret i32 %.0
}